; Function Attrs: mustprogress nounwind uwtable
define internal fastcc noundef zeroext i1 @_ZN12_GLOBAL__N_110MasmParser14emitRealValuesERKN4llvm12fltSemanticsEPj(ptr noundef nonnull align 8 dereferenceable(1144) %0, ptr noundef nonnull align 1 %1, ptr noundef writeonly %2) unnamed_addr #0 align 2 {
  %4 = alloca %"class.llvm::SmallVector.293", align 8
  %5 = load ptr, ptr %0, align 8
  %6 = getelementptr inbounds nuw i8, ptr %5, i64 264
  %7 = load ptr, ptr %6, align 8
  %8 = tail call noundef zeroext i1 %7(ptr noundef nonnull align 8 dereferenceable(1144) %0) #24
  br i1 %8, label %_ZN4llvm11SmallVectorINS_5APIntELj1EED2Ev.exit, label %9

9:                                                ; preds = %3
  %10 = getelementptr inbounds nuw i8, ptr %4, i64 16
  call void @_ZN4llvm15SmallVectorBaseIjEC2EPvm(ptr noundef nonnull align 8 dereferenceable(32) %4, ptr noundef nonnull %10, i64 noundef 1) #24
  %11 = call fastcc noundef zeroext i1 @_ZN12_GLOBAL__N_110MasmParser17parseRealInstListERKN4llvm12fltSemanticsERNS1_15SmallVectorImplINS1_5APIntEEENS1_8AsmToken9TokenKindE(ptr noundef nonnull align 8 dereferenceable(1144) %0, ptr noundef nonnull align 1 %1, ptr noundef nonnull align 8 dereferenceable(16) %4, i32 noundef 9)
  br i1 %11, label %27, label %12

12:                                               ; preds = %9
  %13 = load ptr, ptr %4, align 8
  %14 = call noundef i64 @_ZNK4llvm15SmallVectorBaseIjE4sizeEv(ptr noundef nonnull align 8 dereferenceable(16) %4) #24
  %15 = getelementptr inbounds %"class.llvm::APInt", ptr %13, i64 %14
  %.not15 = icmp eq i64 %14, 0
  br i1 %.not15, label %._crit_edge, label %.lr.ph

.lr.ph:                                           ; preds = %12, %.lr.ph
  %.01216 = phi ptr [ %23, %.lr.ph ], [ %13, %12 ]
  %16 = load ptr, ptr %0, align 8
  %17 = getelementptr inbounds nuw i8, ptr %16, i64 56
  %18 = load ptr, ptr %17, align 8
  %19 = call noundef nonnull align 8 dereferenceable(288) ptr %18(ptr noundef nonnull align 8 dereferenceable(1144) %0) #24
  %20 = load ptr, ptr %19, align 8
  %21 = getelementptr inbounds nuw i8, ptr %20, i64 528
  %22 = load ptr, ptr %21, align 8
  call void %22(ptr noundef nonnull align 8 dereferenceable(288) %19, ptr noundef nonnull align 8 dereferenceable(12) %.01216) #24
  %23 = getelementptr inbounds nuw i8, ptr %.01216, i64 16
  %.not = icmp eq ptr %23, %15
  br i1 %.not, label %._crit_edge, label %.lr.ph

._crit_edge:                                      ; preds = %.lr.ph, %12
  %.not14 = icmp eq ptr %2, null
  br i1 %.not14, label %27, label %24

24:                                               ; preds = %._crit_edge
  %25 = call noundef i64 @_ZNK4llvm15SmallVectorBaseIjE4sizeEv(ptr noundef nonnull align 8 dereferenceable(16) %4) #24
  %26 = trunc i64 %25 to i32
  store i32 %26, ptr %2, align 4
  br label %27

27:                                               ; preds = %._crit_edge, %24, %9
  %28 = load ptr, ptr %4, align 8
  %29 = call noundef i64 @_ZNK4llvm15SmallVectorBaseIjE4sizeEv(ptr noundef nonnull align 8 dereferenceable(32) %4) #24
  %.not4.i.i = icmp eq i64 %29, 0
  br i1 %.not4.i.i, label %_ZN4llvm23SmallVectorTemplateBaseINS_5APIntELb0EE13destroy_rangeEPS1_S3_.exit.i, label %.lr.ph.i.preheader.i

.lr.ph.i.preheader.i:                             ; preds = %27
  %30 = getelementptr inbounds %"class.llvm::APInt", ptr %28, i64 %29
  br label %.lr.ph.i.i

.lr.ph.i.i:                                       ; preds = %_ZN4llvm5APIntD2Ev.exit.i.i, %.lr.ph.i.preheader.i
  %.05.i.i = phi ptr [ %31, %_ZN4llvm5APIntD2Ev.exit.i.i ], [ %30, %.lr.ph.i.preheader.i ]
  %31 = getelementptr inbounds i8, ptr %.05.i.i, i64 -16
  %32 = getelementptr inbounds i8, ptr %.05.i.i, i64 -8
  %33 = load i32, ptr %32, align 8
  %34 = icmp ugt i32 %33, 64
  br i1 %34, label %35, label %_ZN4llvm5APIntD2Ev.exit.i.i

35:                                               ; preds = %.lr.ph.i.i
  %36 = load ptr, ptr %31, align 8
  %37 = icmp eq ptr %36, null
  br i1 %37, label %_ZN4llvm5APIntD2Ev.exit.i.i, label %38

38:                                               ; preds = %35
  call void @_ZdaPv(ptr noundef nonnull %36) #26
  br label %_ZN4llvm5APIntD2Ev.exit.i.i

_ZN4llvm5APIntD2Ev.exit.i.i:                      ; preds = %38, %35, %.lr.ph.i.i
  %.not.i.i = icmp eq ptr %28, %31
  br i1 %.not.i.i, label %_ZN4llvm23SmallVectorTemplateBaseINS_5APIntELb0EE13destroy_rangeEPS1_S3_.exit.i, label %.lr.ph.i.i, !llvm.loop !100

_ZN4llvm23SmallVectorTemplateBaseINS_5APIntELb0EE13destroy_rangeEPS1_S3_.exit.i: ; preds = %_ZN4llvm5APIntD2Ev.exit.i.i, %27
  %39 = load ptr, ptr %4, align 8
  %40 = icmp eq ptr %39, %10
  br i1 %40, label %_ZN4llvm11SmallVectorINS_5APIntELj1EED2Ev.exit, label %41

41:                                               ; preds = %_ZN4llvm23SmallVectorTemplateBaseINS_5APIntELb0EE13destroy_rangeEPS1_S3_.exit.i
  call void @free(ptr noundef %39) #24
  br label %_ZN4llvm11SmallVectorINS_5APIntELj1EED2Ev.exit

_ZN4llvm11SmallVectorINS_5APIntELj1EED2Ev.exit:   ; preds = %41, %_ZN4llvm23SmallVectorTemplateBaseINS_5APIntELb0EE13destroy_rangeEPS1_S3_.exit.i, %3
  %.0 = phi i1 [ true, %3 ], [ %11, %_ZN4llvm23SmallVectorTemplateBaseINS_5APIntELb0EE13destroy_rangeEPS1_S3_.exit.i ], [ %11, %41 ]
  ret i1 %.0
}